target datalayout = "e-m:e-p270:32:32-p271:32:32-p272:64:64-i64:64-i128:128-f80:128-n8:16:32:64-S128"
target triple = "x86_64-pc-linux-gnu"

%struct._packet_info = type { ptr, ptr, i32, i32, %struct.nstime_t, %struct.nstime_t, %struct.nstime_t, i8, ptr, ptr, ptr, ptr, %struct._address, %struct._address, %struct._address, %struct._address, %struct._address, %struct._address, i32, ptr, i8, [3 x i8], %struct.anon, i32, i32, i32, i32, ptr, i8, ptr, ptr, i16, i16, i32, i32, i16, i32, i32, ptr, ptr, ptr, i8, i8, i16, i16, i16, i32, i16, i16, ptr, ptr, ptr, ptr, ptr, i32, i32 }
%struct.nstime_t = type { i64, i32 }
%struct._address = type { i32, i32, ptr, ptr }
%struct.anon = type { i8, [3 x i8] }
%struct.ieee802154_packet = type { i32, i32, i32, i32, i8, i8, i8, i8, i8, i8, i8, i8, i8, i8, i8, i8, i16, i16, i16, i64, i16, i64, i32, i32, i8, i32, i8, i64, %union.anon, i8, i8, ptr }
%union.anon = type { i64 }

@hf_zbee_beacon_protocol = internal global i32 0, align 4
@hf_zbip_beacon_allow_join = internal global i32 0, align 4
@hf_zbip_beacon_router_capacity = internal global i32 0, align 4
@hf_zbip_beacon_host_capacity = internal global i32 0, align 4
@hf_zbip_beacon_unsecure = internal global i32 0, align 4
@hf_zbip_beacon_network_id = internal global i32 0, align 4
@ett_zbee_nwk_beacon = internal global i32 0, align 4
@proto_zbip_beacon = internal global i32 0, align 4
@.str.370 = private unnamed_addr constant [10 x i8] c"ZigBee IP\00", align 1
@.str.371 = private unnamed_addr constant [20 x i8] c"Beacon, Src: 0x%04x\00", align 1
@.str.372 = private unnamed_addr constant [11 x i8] c", SSID: %s\00", align 1

; Function Attrs: null_pointer_is_valid sspstrong uwtable
define internal i32 @dissect_zbip_beacon(ptr noundef %0, ptr noundef %1, ptr noundef %2, ptr noundef %3) #1 {
  %5 = alloca i32, align 4
  %6 = alloca ptr, align 8
  %7 = alloca ptr, align 8
  %8 = alloca ptr, align 8
  %9 = alloca ptr, align 8
  %10 = alloca ptr, align 8
  %11 = alloca ptr, align 8
  %12 = alloca ptr, align 8
  %13 = alloca i32, align 4
  %14 = alloca i8, align 1
  %15 = alloca ptr, align 8
  %16 = alloca i32, align 4
  %17 = alloca ptr, align 8
  %18 = alloca ptr, align 8
  store ptr %0, ptr %6, align 8
  store ptr %1, ptr %7, align 8
  store ptr %2, ptr %8, align 8
  store ptr %3, ptr %9, align 8
  call void @llvm.lifetime.start.p0(i64 8, ptr %10) #10
  %19 = load ptr, ptr %9, align 8
  store ptr %19, ptr %10, align 8
  call void @llvm.lifetime.start.p0(i64 8, ptr %11) #10
  call void @llvm.lifetime.start.p0(i64 8, ptr %12) #10
  call void @llvm.lifetime.start.p0(i64 4, ptr %13) #10
  store i32 0, ptr %13, align 4
  call void @llvm.lifetime.start.p0(i64 1, ptr %14) #10
  call void @llvm.lifetime.start.p0(i64 8, ptr %15) #10
  %20 = load ptr, ptr %10, align 8
  %21 = icmp ne ptr %20, null
  br i1 %21, label %23, label %22

22:                                               ; preds = %4
  store i32 0, ptr %5, align 4
  store i32 1, ptr %16, align 4
  br label %120

23:                                               ; preds = %4
  %24 = load ptr, ptr %7, align 8
  %25 = getelementptr inbounds nuw %struct._packet_info, ptr %24, i32 0, i32 1
  %26 = load ptr, ptr %25, align 8
  call void @col_set_str(ptr noundef %26, i32 noundef 35, ptr noundef @.str.370)
  %27 = load ptr, ptr %8, align 8
  %28 = load i32, ptr @proto_zbip_beacon, align 4
  %29 = load ptr, ptr %6, align 8
  %30 = call ptr @proto_tree_add_item(ptr noundef %27, i32 noundef %28, ptr noundef %29, i32 noundef 0, i32 noundef -1, i32 noundef 0)
  store ptr %30, ptr %11, align 8
  %31 = load ptr, ptr %11, align 8
  %32 = load i32, ptr @ett_zbee_nwk_beacon, align 4
  %33 = call ptr @proto_item_add_subtree(ptr noundef %31, i32 noundef %32)
  store ptr %33, ptr %12, align 8
  %34 = load ptr, ptr %7, align 8
  %35 = getelementptr inbounds nuw %struct._packet_info, ptr %34, i32 0, i32 1
  %36 = load ptr, ptr %35, align 8
  call void @col_clear(ptr noundef %36, i32 noundef 25)
  %37 = load ptr, ptr %7, align 8
  %38 = getelementptr inbounds nuw %struct._packet_info, ptr %37, i32 0, i32 1
  %39 = load ptr, ptr %38, align 8
  %40 = load ptr, ptr %10, align 8
  %41 = getelementptr inbounds nuw %struct.ieee802154_packet, ptr %40, i32 0, i32 20
  %42 = load i16, ptr %41, align 8
  %43 = zext i16 %42 to i32
  call void (ptr, i32, ptr, ...) @col_append_fstr(ptr noundef %39, i32 noundef 25, ptr noundef @.str.371, i32 noundef %43)
  %44 = load ptr, ptr %6, align 8
  %45 = load i32, ptr %13, align 4
  %46 = call zeroext i8 @tvb_get_uint8(ptr noundef %44, i32 noundef %45)
  store i8 %46, ptr %14, align 1
  %47 = load ptr, ptr %12, align 8
  %48 = load i32, ptr @hf_zbee_beacon_protocol, align 4
  %49 = load ptr, ptr %6, align 8
  %50 = load i32, ptr %13, align 4
  %51 = load i8, ptr %14, align 1
  %52 = zext i8 %51 to i32
  %53 = call ptr @proto_tree_add_uint(ptr noundef %47, i32 noundef %48, ptr noundef %49, i32 noundef %50, i32 noundef 1, i32 noundef %52)
  %54 = load i32, ptr %13, align 4
  %55 = add i32 %54, 1
  store i32 %55, ptr %13, align 4
  %56 = load ptr, ptr %12, align 8
  %57 = load i32, ptr @hf_zbip_beacon_allow_join, align 4
  %58 = load ptr, ptr %6, align 8
  %59 = load i32, ptr %13, align 4
  %60 = call ptr @proto_tree_add_item(ptr noundef %56, i32 noundef %57, ptr noundef %58, i32 noundef %59, i32 noundef 1, i32 noundef 0)
  %61 = load ptr, ptr %12, align 8
  %62 = load i32, ptr @hf_zbip_beacon_router_capacity, align 4
  %63 = load ptr, ptr %6, align 8
  %64 = load i32, ptr %13, align 4
  %65 = call ptr @proto_tree_add_item(ptr noundef %61, i32 noundef %62, ptr noundef %63, i32 noundef %64, i32 noundef 1, i32 noundef 0)
  %66 = load ptr, ptr %12, align 8
  %67 = load i32, ptr @hf_zbip_beacon_host_capacity, align 4
  %68 = load ptr, ptr %6, align 8
  %69 = load i32, ptr %13, align 4
  %70 = call ptr @proto_tree_add_item(ptr noundef %66, i32 noundef %67, ptr noundef %68, i32 noundef %69, i32 noundef 1, i32 noundef 0)
  %71 = load ptr, ptr %12, align 8
  %72 = load i32, ptr @hf_zbip_beacon_unsecure, align 4
  %73 = load ptr, ptr %6, align 8
  %74 = load i32, ptr %13, align 4
  %75 = call ptr @proto_tree_add_item(ptr noundef %71, i32 noundef %72, ptr noundef %73, i32 noundef %74, i32 noundef 1, i32 noundef 0)
  %76 = load i32, ptr %13, align 4
  %77 = add i32 %76, 1
  store i32 %77, ptr %13, align 4
  %78 = load ptr, ptr %12, align 8
  %79 = load i32, ptr @hf_zbip_beacon_network_id, align 4
  %80 = load ptr, ptr %6, align 8
  %81 = load i32, ptr %13, align 4
  %82 = call ptr @proto_tree_add_item(ptr noundef %78, i32 noundef %79, ptr noundef %80, i32 noundef %81, i32 noundef 16, i32 noundef 0)
  %83 = load ptr, ptr %7, align 8
  %84 = getelementptr inbounds nuw %struct._packet_info, ptr %83, i32 0, i32 51
  %85 = load ptr, ptr %84, align 8
  %86 = load ptr, ptr %6, align 8
  %87 = load i32, ptr %13, align 4
  %88 = call ptr @tvb_get_string_enc(ptr noundef %85, ptr noundef %86, i32 noundef %87, i32 noundef 16, i32 noundef 0)
  store ptr %88, ptr %15, align 8
  %89 = load ptr, ptr %7, align 8
  %90 = getelementptr inbounds nuw %struct._packet_info, ptr %89, i32 0, i32 1
  %91 = load ptr, ptr %90, align 8
  %92 = load ptr, ptr %15, align 8
  call void (ptr, i32, ptr, ...) @col_append_fstr(ptr noundef %91, i32 noundef 25, ptr noundef @.str.372, ptr noundef %92)
  %93 = load i32, ptr %13, align 4
  %94 = add i32 %93, 16
  store i32 %94, ptr %13, align 4
  %95 = load ptr, ptr %6, align 8
  %96 = load ptr, ptr %7, align 8
  %97 = load ptr, ptr %12, align 8
  %98 = load i32, ptr %13, align 4
  %99 = load ptr, ptr %9, align 8
  %100 = call i32 @dissect_zbee_tlvs(ptr noundef %95, ptr noundef %96, ptr noundef %97, i32 noundef %98, ptr noundef %99, i8 noundef zeroext 0, i32 noundef 0)
  store i32 %100, ptr %13, align 4
  %101 = load i32, ptr %13, align 4
  %102 = load ptr, ptr %6, align 8
  %103 = call i32 @tvb_captured_length(ptr noundef %102)
  %104 = icmp ult i32 %101, %103
  br i1 %104, label %105, label %117

105:                                              ; preds = %23
  call void @llvm.lifetime.start.p0(i64 8, ptr %17) #10
  %106 = load ptr, ptr %6, align 8
  %107 = load i32, ptr %13, align 4
  %108 = call ptr @tvb_new_subset_remaining(ptr noundef %106, i32 noundef %107)
  store ptr %108, ptr %17, align 8
  call void @llvm.lifetime.start.p0(i64 8, ptr %18) #10
  %109 = load ptr, ptr %8, align 8
  %110 = call ptr @proto_tree_get_root(ptr noundef %109)
  store ptr %110, ptr %18, align 8
  %111 = load ptr, ptr %11, align 8
  %112 = load i32, ptr %13, align 4
  call void @proto_item_set_len(ptr noundef %111, i32 noundef %112)
  %113 = load ptr, ptr %17, align 8
  %114 = load ptr, ptr %7, align 8
  %115 = load ptr, ptr %18, align 8
  %116 = call i32 @call_data_dissector(ptr noundef %113, ptr noundef %114, ptr noundef %115)
  call void @llvm.lifetime.end.p0(i64 8, ptr %18) #10
  call void @llvm.lifetime.end.p0(i64 8, ptr %17) #10
  br label %117

117:                                              ; preds = %105, %23
  %118 = load ptr, ptr %6, align 8
  %119 = call i32 @tvb_captured_length(ptr noundef %118)
  store i32 %119, ptr %5, align 4
  store i32 1, ptr %16, align 4
  br label %120

120:                                              ; preds = %117, %22
  call void @llvm.lifetime.end.p0(i64 8, ptr %15) #10
  call void @llvm.lifetime.end.p0(i64 1, ptr %14) #10
  call void @llvm.lifetime.end.p0(i64 4, ptr %13) #10
  call void @llvm.lifetime.end.p0(i64 8, ptr %12) #10
  call void @llvm.lifetime.end.p0(i64 8, ptr %11) #10
  call void @llvm.lifetime.end.p0(i64 8, ptr %10) #10
  %121 = load i32, ptr %5, align 4
  ret i32 %121
}