; Function Attrs: null_pointer_is_valid sspstrong uwtable
define internal i32 @dissect_zbip_beacon(ptr noundef %0, ptr noundef %1, ptr noundef %2, ptr noundef %3) #1 {
  %.not = icmp eq ptr %3, null
  br i1 %.not, label %44, label %5

5:                                                ; preds = %4
  %6 = getelementptr inbounds nuw i8, ptr %1, i64 8
  %7 = load ptr, ptr %6, align 8
  tail call void @col_set_str(ptr noundef %7, i32 noundef 35, ptr noundef nonnull @.str.370)
  %8 = load i32, ptr @proto_zbip_beacon, align 4
  %9 = tail call ptr @proto_tree_add_item(ptr noundef %2, i32 noundef %8, ptr noundef %0, i32 noundef 0, i32 noundef -1, i32 noundef 0)
  %10 = load i32, ptr @ett_zbee_nwk_beacon, align 4
  %11 = tail call ptr @proto_item_add_subtree(ptr noundef %9, i32 noundef %10)
  %12 = load ptr, ptr %6, align 8
  tail call void @col_clear(ptr noundef %12, i32 noundef 25)
  %13 = load ptr, ptr %6, align 8
  %14 = getelementptr inbounds nuw i8, ptr %3, i64 48
  %15 = load i16, ptr %14, align 8
  %16 = zext i16 %15 to i32
  tail call void (ptr, i32, ptr, ...) @col_append_fstr(ptr noundef %13, i32 noundef 25, ptr noundef nonnull @.str.371, i32 noundef %16)
  %17 = tail call zeroext i8 @tvb_get_uint8(ptr noundef %0, i32 noundef 0)
  %18 = load i32, ptr @hf_zbee_beacon_protocol, align 4
  %19 = zext i8 %17 to i32
  %20 = tail call ptr @proto_tree_add_uint(ptr noundef %11, i32 noundef %18, ptr noundef %0, i32 noundef 0, i32 noundef 1, i32 noundef %19)
  %21 = load i32, ptr @hf_zbip_beacon_allow_join, align 4
  %22 = tail call ptr @proto_tree_add_item(ptr noundef %11, i32 noundef %21, ptr noundef %0, i32 noundef 1, i32 noundef 1, i32 noundef 0)
  %23 = load i32, ptr @hf_zbip_beacon_router_capacity, align 4
  %24 = tail call ptr @proto_tree_add_item(ptr noundef %11, i32 noundef %23, ptr noundef %0, i32 noundef 1, i32 noundef 1, i32 noundef 0)
  %25 = load i32, ptr @hf_zbip_beacon_host_capacity, align 4
  %26 = tail call ptr @proto_tree_add_item(ptr noundef %11, i32 noundef %25, ptr noundef %0, i32 noundef 1, i32 noundef 1, i32 noundef 0)
  %27 = load i32, ptr @hf_zbip_beacon_unsecure, align 4
  %28 = tail call ptr @proto_tree_add_item(ptr noundef %11, i32 noundef %27, ptr noundef %0, i32 noundef 1, i32 noundef 1, i32 noundef 0)
  %29 = load i32, ptr @hf_zbip_beacon_network_id, align 4
  %30 = tail call ptr @proto_tree_add_item(ptr noundef %11, i32 noundef %29, ptr noundef %0, i32 noundef 2, i32 noundef 16, i32 noundef 0)
  %31 = getelementptr inbounds nuw i8, ptr %1, i64 408
  %32 = load ptr, ptr %31, align 8
  %33 = tail call ptr @tvb_get_string_enc(ptr noundef %32, ptr noundef %0, i32 noundef 2, i32 noundef 16, i32 noundef 0)
  %34 = load ptr, ptr %6, align 8
  tail call void (ptr, i32, ptr, ...) @col_append_fstr(ptr noundef %34, i32 noundef 25, ptr noundef nonnull @.str.372, ptr noundef %33)
  %35 = tail call i32 @dissect_zbee_tlvs(ptr noundef %0, ptr noundef %1, ptr noundef %11, i32 noundef 18, ptr noundef nonnull %3, i8 noundef zeroext 0, i32 noundef 0)
  %36 = tail call i32 @tvb_captured_length(ptr noundef %0)
  %37 = icmp ult i32 %35, %36
  br i1 %37, label %38, label %42

38:                                               ; preds = %5
  %39 = tail call ptr @tvb_new_subset_remaining(ptr noundef %0, i32 noundef %35)
  %40 = tail call ptr @proto_tree_get_root(ptr noundef %2)
  tail call void @proto_item_set_len(ptr noundef %9, i32 noundef %35)
  %41 = tail call i32 @call_data_dissector(ptr noundef %39, ptr noundef %1, ptr noundef %40)
  br label %42

42:                                               ; preds = %38, %5
  %43 = tail call i32 @tvb_captured_length(ptr noundef %0)
  br label %44

44:                                               ; preds = %4, %42
  %.0 = phi i32 [ %43, %42 ], [ 0, %4 ]
  ret i32 %.0
}